; Function Attrs: nounwind uwtable
define ptr @l_Lake_instMonadStoreStateTRBMapOfMonad___rarg___lambda__1(ptr noundef %0, ptr noundef %1, ptr noundef %2, ptr noundef %3) #0 {
  %.val = load i32, ptr %3, align 4, !tbaa !4
  %5 = icmp eq i32 %.val, 1
  %6 = getelementptr inbounds nuw i8, ptr %3, i64 8
  %7 = load ptr, ptr %6, align 8, !tbaa !9
  br i1 %5, label %8, label %10

8:                                                ; preds = %4
  %9 = tail call ptr @l_Lean_RBNode_find___rarg(ptr noundef %0, ptr noundef nonnull inttoptr (i64 1 to ptr), ptr noundef %7, ptr noundef %1) #3
  store ptr %9, ptr %6, align 8, !tbaa !9
  br label %45

10:                                               ; preds = %4
  %11 = getelementptr inbounds nuw i8, ptr %3, i64 16
  %12 = load ptr, ptr %11, align 8, !tbaa !9
  %13 = ptrtoint ptr %12 to i64
  %14 = and i64 %13, 1
  %.not = icmp eq i64 %14, 0
  br i1 %.not, label %15, label %lean_inc.exit26

15:                                               ; preds = %10
  %.val.i = load i32, ptr %12, align 4, !tbaa !4
  %16 = icmp sgt i32 %.val.i, 0
  br i1 %16, label %17, label %19, !prof !11

17:                                               ; preds = %15
  %18 = add nuw i32 %.val.i, 1
  store i32 %18, ptr %12, align 4, !tbaa !4
  br label %lean_inc.exit26

19:                                               ; preds = %15
  %.not.i27 = icmp eq i32 %.val.i, 0
  br i1 %.not.i27, label %lean_inc.exit26, label %20

20:                                               ; preds = %19
  tail call void @lean_inc_ref_cold(ptr noundef nonnull %12) #3
  br label %lean_inc.exit26

lean_inc.exit26:                                  ; preds = %20, %19, %17, %10
  %21 = ptrtoint ptr %7 to i64
  %22 = and i64 %21, 1
  %.not31 = icmp eq i64 %22, 0
  br i1 %.not31, label %23, label %lean_inc.exit

23:                                               ; preds = %lean_inc.exit26
  %.val.i28 = load i32, ptr %7, align 4, !tbaa !4
  %24 = icmp sgt i32 %.val.i28, 0
  br i1 %24, label %25, label %27, !prof !11

25:                                               ; preds = %23
  %26 = add nuw i32 %.val.i28, 1
  store i32 %26, ptr %7, align 4, !tbaa !4
  br label %lean_inc.exit

27:                                               ; preds = %23
  %.not.i29 = icmp eq i32 %.val.i28, 0
  br i1 %.not.i29, label %lean_inc.exit, label %28

28:                                               ; preds = %27
  tail call void @lean_inc_ref_cold(ptr noundef nonnull %7) #3
  br label %lean_inc.exit

lean_inc.exit:                                    ; preds = %28, %27, %25, %lean_inc.exit26
  %29 = ptrtoint ptr %3 to i64
  %30 = and i64 %29, 1
  %.not32 = icmp eq i64 %30, 0
  br i1 %.not32, label %31, label %lean_dec.exit

31:                                               ; preds = %lean_inc.exit
  %32 = load i32, ptr %3, align 4, !tbaa !4
  %33 = icmp sgt i32 %32, 1
  br i1 %33, label %34, label %36, !prof !11

34:                                               ; preds = %31
  %35 = add nsw i32 %32, -1
  store i32 %35, ptr %3, align 4, !tbaa !4
  br label %lean_dec.exit

36:                                               ; preds = %31
  %.not.i = icmp eq i32 %32, 0
  br i1 %.not.i, label %lean_dec.exit, label %37

37:                                               ; preds = %36
  tail call void @lean_dec_ref_cold(ptr noundef nonnull %3) #3
  br label %lean_dec.exit

lean_dec.exit:                                    ; preds = %37, %36, %34, %lean_inc.exit
  %38 = tail call ptr @l_Lean_RBNode_find___rarg(ptr noundef %0, ptr noundef nonnull inttoptr (i64 1 to ptr), ptr noundef %7, ptr noundef %1) #3
  tail call void @lean_inc_heartbeat() #3
  %39 = tail call noalias ptr @mi_malloc_small(i64 noundef 24) #3
  %40 = icmp eq ptr %39, null
  br i1 %40, label %41, label %lean_alloc_ctor.exit

41:                                               ; preds = %lean_dec.exit
  tail call void @lean_internal_panic_out_of_memory() #4
  unreachable

lean_alloc_ctor.exit:                             ; preds = %lean_dec.exit
  %42 = getelementptr inbounds nuw i8, ptr %39, i64 4
  store i32 1, ptr %39, align 4, !tbaa !4
  store i32 131096, ptr %42, align 4
  %43 = getelementptr inbounds nuw i8, ptr %39, i64 8
  store ptr %38, ptr %43, align 8, !tbaa !9
  %44 = getelementptr inbounds nuw i8, ptr %39, i64 16
  store ptr %12, ptr %44, align 8, !tbaa !9
  br label %45

45:                                               ; preds = %lean_alloc_ctor.exit, %8
  %.sink = phi ptr [ %39, %lean_alloc_ctor.exit ], [ %3, %8 ]
  %46 = tail call ptr @lean_apply_2(ptr noundef %2, ptr noundef nonnull inttoptr (i64 1 to ptr), ptr noundef nonnull %.sink) #3
  ret ptr %46
}